target datalayout = "e-m:e-p270:32:32-p271:32:32-p272:64:64-i64:64-i128:128-f80:128-n8:16:32:64-S128"
target triple = "x86_64-pc-linux-gnu"

%"class.icu_77::CharacterIterator" = type { %"class.icu_77::ForwardCharacterIterator", i32, i32, i32, i32 }
%"class.icu_77::ForwardCharacterIterator" = type { %"class.icu_77::UObject" }
%"class.icu_77::UObject" = type { ptr }

; Function Attrs: mustprogress nounwind uwtable
define noundef i32 @_ZN6icu_7722UCharCharacterIterator4moveEiNS_17CharacterIterator7EOriginE(ptr noundef nonnull align 8 dereferenceable(32) %0, i32 noundef %1, i32 noundef %2) unnamed_addr #0 align 2 {
  %4 = alloca ptr, align 8
  %5 = alloca i32, align 4
  %6 = alloca i32, align 4
  store ptr %0, ptr %4, align 8, !tbaa !3
  store i32 %1, ptr %5, align 4, !tbaa !19
  store i32 %2, ptr %6, align 4, !tbaa !32
  %7 = load ptr, ptr %4, align 8
  %8 = load i32, ptr %6, align 4, !tbaa !32
  switch i32 %8, label %26 [
    i32 0, label %9
    i32 1, label %15
    i32 2, label %20
  ]

9:                                                ; preds = %3
  %10 = getelementptr inbounds nuw %"class.icu_77::CharacterIterator", ptr %7, i32 0, i32 3
  %11 = load i32, ptr %10, align 8, !tbaa !24
  %12 = load i32, ptr %5, align 4, !tbaa !19
  %13 = add nsw i32 %11, %12
  %14 = getelementptr inbounds nuw %"class.icu_77::CharacterIterator", ptr %7, i32 0, i32 2
  store i32 %13, ptr %14, align 4, !tbaa !23
  br label %27

15:                                               ; preds = %3
  %16 = load i32, ptr %5, align 4, !tbaa !19
  %17 = getelementptr inbounds nuw %"class.icu_77::CharacterIterator", ptr %7, i32 0, i32 2
  %18 = load i32, ptr %17, align 4, !tbaa !23
  %19 = add nsw i32 %18, %16
  store i32 %19, ptr %17, align 4, !tbaa !23
  br label %27

20:                                               ; preds = %3
  %21 = getelementptr inbounds nuw %"class.icu_77::CharacterIterator", ptr %7, i32 0, i32 4
  %22 = load i32, ptr %21, align 4, !tbaa !25
  %23 = load i32, ptr %5, align 4, !tbaa !19
  %24 = add nsw i32 %22, %23
  %25 = getelementptr inbounds nuw %"class.icu_77::CharacterIterator", ptr %7, i32 0, i32 2
  store i32 %24, ptr %25, align 4, !tbaa !23
  br label %27

26:                                               ; preds = %3
  br label %27

27:                                               ; preds = %26, %20, %15, %9
  %28 = getelementptr inbounds nuw %"class.icu_77::CharacterIterator", ptr %7, i32 0, i32 2
  %29 = load i32, ptr %28, align 4, !tbaa !23
  %30 = getelementptr inbounds nuw %"class.icu_77::CharacterIterator", ptr %7, i32 0, i32 3
  %31 = load i32, ptr %30, align 8, !tbaa !24
  %32 = icmp slt i32 %29, %31
  br i1 %32, label %33, label %37

33:                                               ; preds = %27
  %34 = getelementptr inbounds nuw %"class.icu_77::CharacterIterator", ptr %7, i32 0, i32 3
  %35 = load i32, ptr %34, align 8, !tbaa !24
  %36 = getelementptr inbounds nuw %"class.icu_77::CharacterIterator", ptr %7, i32 0, i32 2
  store i32 %35, ptr %36, align 4, !tbaa !23
  br label %48

37:                                               ; preds = %27
  %38 = getelementptr inbounds nuw %"class.icu_77::CharacterIterator", ptr %7, i32 0, i32 2
  %39 = load i32, ptr %38, align 4, !tbaa !23
  %40 = getelementptr inbounds nuw %"class.icu_77::CharacterIterator", ptr %7, i32 0, i32 4
  %41 = load i32, ptr %40, align 4, !tbaa !25
  %42 = icmp sgt i32 %39, %41
  br i1 %42, label %43, label %47

43:                                               ; preds = %37
  %44 = getelementptr inbounds nuw %"class.icu_77::CharacterIterator", ptr %7, i32 0, i32 4
  %45 = load i32, ptr %44, align 4, !tbaa !25
  %46 = getelementptr inbounds nuw %"class.icu_77::CharacterIterator", ptr %7, i32 0, i32 2
  store i32 %45, ptr %46, align 4, !tbaa !23
  br label %47

47:                                               ; preds = %43, %37
  br label %48

48:                                               ; preds = %47, %33
  %49 = getelementptr inbounds nuw %"class.icu_77::CharacterIterator", ptr %7, i32 0, i32 2
  %50 = load i32, ptr %49, align 4, !tbaa !23
  ret i32 %50
}