; Function Attrs: mustprogress nofree norecurse nosync nounwind willreturn memory(argmem: readwrite) uwtable
define noundef i32 @_ZN6icu_7722UCharCharacterIterator4moveEiNS_17CharacterIterator7EOriginE(ptr noundef nonnull align 8 captures(none) dereferenceable(32) %0, i32 noundef %1, i32 noundef %2) unnamed_addr #10 align 2 {
  switch i32 %2, label %._crit_edge [
    i32 0, label %4
    i32 1, label %9
    i32 2, label %13
  ]

._crit_edge:                                      ; preds = %3
  %.phi.trans.insert = getelementptr inbounds nuw i8, ptr %0, i64 12
  %.pre = load i32, ptr %.phi.trans.insert, align 4, !tbaa !22
  br label %18

4:                                                ; preds = %3
  %5 = getelementptr inbounds nuw i8, ptr %0, i64 16
  %6 = load i32, ptr %5, align 8, !tbaa !23
  %7 = add nsw i32 %6, %1
  %8 = getelementptr inbounds nuw i8, ptr %0, i64 12
  store i32 %7, ptr %8, align 4, !tbaa !22
  br label %18

9:                                                ; preds = %3
  %10 = getelementptr inbounds nuw i8, ptr %0, i64 12
  %11 = load i32, ptr %10, align 4, !tbaa !22
  %12 = add nsw i32 %11, %1
  store i32 %12, ptr %10, align 4, !tbaa !22
  br label %18

13:                                               ; preds = %3
  %14 = getelementptr inbounds nuw i8, ptr %0, i64 20
  %15 = load i32, ptr %14, align 4, !tbaa !24
  %16 = add nsw i32 %15, %1
  %17 = getelementptr inbounds nuw i8, ptr %0, i64 12
  store i32 %16, ptr %17, align 4, !tbaa !22
  br label %18

18:                                               ; preds = %._crit_edge, %13, %9, %4
  %19 = phi i32 [ %.pre, %._crit_edge ], [ %16, %13 ], [ %12, %9 ], [ %7, %4 ]
  %20 = getelementptr inbounds nuw i8, ptr %0, i64 12
  %21 = getelementptr inbounds nuw i8, ptr %0, i64 16
  %22 = load i32, ptr %21, align 8, !tbaa !23
  %23 = icmp slt i32 %19, %22
  br i1 %23, label %.sink.split, label %24

24:                                               ; preds = %18
  %25 = getelementptr inbounds nuw i8, ptr %0, i64 20
  %26 = load i32, ptr %25, align 4, !tbaa !24
  %27 = icmp sgt i32 %19, %26
  br i1 %27, label %.sink.split, label %28

.sink.split:                                      ; preds = %24, %18
  %.sink = phi i32 [ %22, %18 ], [ %26, %24 ]
  store i32 %.sink, ptr %20, align 4, !tbaa !22
  br label %28

28:                                               ; preds = %.sink.split, %24
  %29 = phi i32 [ %19, %24 ], [ %.sink, %.sink.split ]
  ret i32 %29
}